; Function Attrs: mustprogress nofree norecurse nosync nounwind willreturn memory(argmem: write) uwtable
define void @_ZN7rocksdb19BijectiveUnhash2x64EmmPmS0_(i64 noundef %0, i64 noundef %1, ptr noundef writeonly captures(none) initializes((0, 8)) %2, ptr noundef writeonly captures(none) initializes((0, 8)) %3) local_unnamed_addr #9 {
  %5 = lshr i64 %1, 32
  %6 = xor i64 %5, %1
  %7 = mul i64 %6, 637979407623780425
  %8 = lshr i64 %7, 37
  %9 = xor i64 %8, %7
  %10 = lshr i64 %0, 32
  %11 = xor i64 %10, %0
  %12 = mul i64 %11, 637979407623780425
  %13 = lshr i64 %12, 37
  %14 = xor i64 %13, %12
  %15 = mul i64 %9, 839798700976720815
  %16 = and i64 %15, 4294967295
  %17 = mul nuw nsw i64 %16, 668265295
  %18 = lshr i64 %17, 32
  %19 = lshr i64 %15, 32
  %20 = mul nuw nsw i64 %19, 668265295
  %21 = add nuw nsw i64 %18, %20
  %22 = mul nuw i64 %16, 3266489917
  %23 = and i64 %22, 4294967295
  %24 = add nuw nsw i64 %21, %23
  %25 = lshr i64 %24, 32
  %26 = lshr i64 %22, 32
  %.neg.i = mul i64 %19, -3266489917
  %.neg4 = add i64 %.neg.i, %14
  %27 = add nuw nsw i64 %26, %25
  %28 = sub i64 %.neg4, %27
  %29 = mul i64 %28, 839798700976720815
  %30 = tail call noundef i64 @llvm.bswap.i64(i64 %29)
  %31 = xor i64 %30, %15
  %32 = mul i64 %31, 614540362697595703
  %33 = add i64 %32, -1026820715040473088
  %34 = and i64 %32, 4294967295
  %35 = mul nuw i64 %34, 2246822535
  %36 = lshr i64 %35, 32
  %37 = lshr i64 %33, 32
  %38 = mul nuw i64 %37, 2246822535
  %39 = add nuw i64 %36, %38
  %40 = mul nuw i64 %34, 2654435761
  %41 = and i64 %40, 4294967295
  %42 = add nuw i64 %39, %41
  %43 = lshr i64 %42, 32
  %44 = lshr i64 %40, 32
  %.neg37.i = mul i64 %37, -2654435761
  %.neg7 = add i64 %.neg37.i, %29
  %45 = add nuw nsw i64 %44, %43
  %46 = sub i64 %.neg7, %45
  %47 = mul i64 %46, 3066638151
  %48 = and i64 %47, 4294967295
  %49 = sub i64 %46, %48
  %50 = and i64 %49, -4294967296
  %51 = mul nuw i64 %48, 2246822518
  %52 = and i64 %51, -4294967296
  %53 = sub i64 %50, %52
  %54 = or disjoint i64 %53, %48
  %55 = xor i64 %54, -4466874330221494952
  %56 = xor i64 %33, %55
  %57 = xor i64 %56, 6455697860950631241
  store i64 %55, ptr %2, align 8, !tbaa !27
  store i64 %57, ptr %3, align 8, !tbaa !27
  ret void
}